target datalayout = "e-m:e-p270:32:32-p271:32:32-p272:64:64-i64:64-i128:128-f80:128-n8:16:32:64-S128"
target triple = "x86_64-pc-linux-gnu"

%struct.strvec = type { ptr, i64, i64 }
%struct.strbuf = type { i64, i64, ptr }
%struct.child_process = type { %struct.strvec, %struct.strvec, i32, i32, i64, ptr, ptr, i32, i32, i32, ptr, i16, ptr }

@.str.56 = private unnamed_addr constant [2 x i8] c".\00", align 1
@strbuf_slopbuf = external global [0 x i8], align 1
@__const.copy_to_log.line = private unnamed_addr constant %struct.strbuf { i64 0, i64 0, ptr @strbuf_slopbuf }, align 8
@.str.57 = private unnamed_addr constant [2 x i8] c"r\00", align 1
@.str.58 = private unnamed_addr constant [31 x i8] c"fdopen of error channel failed\00", align 1
@.str.59 = private unnamed_addr constant [3 x i8] c"%s\00", align 1
@.str.63 = private unnamed_addr constant [11 x i8] c"./strbuf.h\00", align 1
@.str.64 = private unnamed_addr constant [30 x i8] c"strbuf_setlen() beyond buffer\00", align 1

; Function Attrs: inlinehint nounwind uwtable
define internal void @strbuf_setlen(ptr noundef %0, i64 noundef %1) #3 {
  %3 = alloca ptr, align 8
  %4 = alloca i64, align 8
  store ptr %0, ptr %3, align 8, !tbaa !65
  store i64 %1, ptr %4, align 8, !tbaa !15
  %5 = load i64, ptr %4, align 8, !tbaa !15
  %6 = load ptr, ptr %3, align 8, !tbaa !65
  %7 = getelementptr inbounds nuw %struct.strbuf, ptr %6, i32 0, i32 0
  %8 = load i64, ptr %7, align 8, !tbaa !67
  %9 = icmp ne i64 %8, 0
  br i1 %9, label %10, label %15

10:                                               ; preds = %2
  %11 = load ptr, ptr %3, align 8, !tbaa !65
  %12 = getelementptr inbounds nuw %struct.strbuf, ptr %11, i32 0, i32 0
  %13 = load i64, ptr %12, align 8, !tbaa !67
  %14 = sub i64 %13, 1
  br label %16

15:                                               ; preds = %2
  br label %16

16:                                               ; preds = %15, %10
  %17 = phi i64 [ %14, %10 ], [ 0, %15 ]
  %18 = icmp ugt i64 %5, %17
  br i1 %18, label %19, label %20

19:                                               ; preds = %16
  call void (ptr, i32, ptr, ...) @BUG_fl(ptr noundef @.str.63, i32 noundef 167, ptr noundef @.str.64) #15
  unreachable

20:                                               ; preds = %16
  %21 = load i64, ptr %4, align 8, !tbaa !15
  %22 = load ptr, ptr %3, align 8, !tbaa !65
  %23 = getelementptr inbounds nuw %struct.strbuf, ptr %22, i32 0, i32 1
  store i64 %21, ptr %23, align 8, !tbaa !68
  %24 = load ptr, ptr %3, align 8, !tbaa !65
  %25 = getelementptr inbounds nuw %struct.strbuf, ptr %24, i32 0, i32 2
  %26 = load ptr, ptr %25, align 8, !tbaa !62
  %27 = icmp ne ptr %26, @strbuf_slopbuf
  br i1 %27, label %28, label %34

28:                                               ; preds = %20
  %29 = load ptr, ptr %3, align 8, !tbaa !65
  %30 = getelementptr inbounds nuw %struct.strbuf, ptr %29, i32 0, i32 2
  %31 = load ptr, ptr %30, align 8, !tbaa !62
  %32 = load i64, ptr %4, align 8, !tbaa !15
  %33 = getelementptr inbounds nuw i8, ptr %31, i64 %32
  store i8 0, ptr %33, align 1, !tbaa !17
  br label %35

34:                                               ; preds = %20
  br label %35

35:                                               ; preds = %34, %28
  ret void
}

; Function Attrs: nounwind uwtable
define internal void @copy_to_log(i32 noundef %0) #0 {
  %2 = alloca i32, align 4
  %3 = alloca %struct.strbuf, align 8
  %4 = alloca ptr, align 8
  %5 = alloca i32, align 4
  store i32 %0, ptr %2, align 4, !tbaa !4
  call void @llvm.lifetime.start.p0(i64 24, ptr %3) #13
  call void @llvm.memcpy.p0.p0.i64(ptr align 8 %3, ptr align 8 @__const.copy_to_log.line, i64 24, i1 false)
  call void @llvm.lifetime.start.p0(i64 8, ptr %4) #13
  %6 = load i32, ptr %2, align 4, !tbaa !4
  %7 = call noalias ptr @fdopen(i32 noundef %6, ptr noundef @.str.57) #13
  store ptr %7, ptr %4, align 8, !tbaa !20
  %8 = load ptr, ptr %4, align 8, !tbaa !20
  %9 = icmp ne ptr %8, null
  br i1 %9, label %13, label %10

10:                                               ; preds = %1
  call void (ptr, ...) @logerror(ptr noundef @.str.58)
  %11 = load i32, ptr %2, align 4, !tbaa !4
  %12 = call i32 @close(i32 noundef %11)
  store i32 1, ptr %5, align 4
  br label %24

13:                                               ; preds = %1
  br label %14

14:                                               ; preds = %18, %13
  %15 = load ptr, ptr %4, align 8, !tbaa !20
  %16 = call i32 @strbuf_getline_lf(ptr noundef %3, ptr noundef %15)
  %17 = icmp ne i32 %16, -1
  br i1 %17, label %18, label %21

18:                                               ; preds = %14
  %19 = getelementptr inbounds nuw %struct.strbuf, ptr %3, i32 0, i32 2
  %20 = load ptr, ptr %19, align 8, !tbaa !62
  call void (ptr, ...) @logerror(ptr noundef @.str.59, ptr noundef %20)
  call void @strbuf_setlen(ptr noundef %3, i64 noundef 0)
  br label %14, !llvm.loop !64

21:                                               ; preds = %14
  call void @strbuf_release(ptr noundef %3)
  %22 = load ptr, ptr %4, align 8, !tbaa !20
  %23 = call i32 @fclose(ptr noundef %22)
  store i32 0, ptr %5, align 4
  br label %24

24:                                               ; preds = %21, %10
  call void @llvm.lifetime.end.p0(i64 8, ptr %4) #13
  call void @llvm.lifetime.end.p0(i64 24, ptr %3) #13
  %25 = load i32, ptr %5, align 4
  switch i32 %25, label %27 [
    i32 0, label %26
    i32 1, label %26
  ]

26:                                               ; preds = %24, %24
  ret void

27:                                               ; preds = %24
  unreachable
}

; Function Attrs: nounwind uwtable
define internal i32 @run_service_command(ptr noundef %0) #0 {
  %2 = alloca i32, align 4
  %3 = alloca ptr, align 8
  store ptr %0, ptr %3, align 8, !tbaa !58
  %4 = load ptr, ptr %3, align 8, !tbaa !58
  %5 = getelementptr inbounds nuw %struct.child_process, ptr %4, i32 0, i32 0
  %6 = call ptr @strvec_push(ptr noundef %5, ptr noundef @.str.56)
  %7 = load ptr, ptr %3, align 8, !tbaa !58
  %8 = getelementptr inbounds nuw %struct.child_process, ptr %7, i32 0, i32 11
  %9 = load i16, ptr %8, align 8
  %10 = and i16 %9, -9
  %11 = or i16 %10, 8
  store i16 %11, ptr %8, align 8
  %12 = load ptr, ptr %3, align 8, !tbaa !58
  %13 = getelementptr inbounds nuw %struct.child_process, ptr %12, i32 0, i32 9
  store i32 -1, ptr %13, align 8, !tbaa !60
  %14 = load ptr, ptr %3, align 8, !tbaa !58
  %15 = call i32 @start_command(ptr noundef %14)
  %16 = icmp ne i32 %15, 0
  br i1 %16, label %17, label %18

17:                                               ; preds = %1
  store i32 -1, ptr %2, align 4
  br label %26

18:                                               ; preds = %1
  %19 = call i32 @close(i32 noundef 0)
  %20 = call i32 @close(i32 noundef 1)
  %21 = load ptr, ptr %3, align 8, !tbaa !58
  %22 = getelementptr inbounds nuw %struct.child_process, ptr %21, i32 0, i32 9
  %23 = load i32, ptr %22, align 8, !tbaa !60
  call void @copy_to_log(i32 noundef %23)
  %24 = load ptr, ptr %3, align 8, !tbaa !58
  %25 = call i32 @finish_command(ptr noundef %24)
  store i32 %25, ptr %2, align 4
  br label %26

26:                                               ; preds = %18, %17
  %27 = load i32, ptr %2, align 4
  ret i32 %27
}