; Function Attrs: nounwind uwtable
define internal fastcc i32 @run_service_command(ptr noundef nonnull %0) unnamed_addr #0 {
  %2 = alloca %struct.strbuf, align 8
  %3 = tail call ptr @strvec_push(ptr noundef nonnull %0, ptr noundef nonnull @.str.56) #21
  %4 = getelementptr inbounds nuw i8, ptr %0, i64 104
  %5 = load i16, ptr %4, align 8
  %6 = or i16 %5, 8
  store i16 %6, ptr %4, align 8
  %7 = getelementptr inbounds nuw i8, ptr %0, i64 88
  store i32 -1, ptr %7, align 8, !tbaa !90
  %8 = tail call i32 @start_command(ptr noundef nonnull %0) #21
  %.not = icmp eq i32 %8, 0
  br i1 %.not, label %9, label %26

9:                                                ; preds = %1
  %10 = tail call i32 @close(i32 noundef 0) #21
  %11 = tail call i32 @close(i32 noundef 1) #21
  %12 = load i32, ptr %7, align 8, !tbaa !90
  call void @llvm.lifetime.start.p0(i64 24, ptr nonnull %2) #21
  call void @llvm.memcpy.p0.p0.i64(ptr noundef nonnull align 8 dereferenceable(24) %2, ptr noundef nonnull align 8 dereferenceable(24) @__const.run_access_hook.buf, i64 24, i1 false)
  %13 = tail call noalias ptr @fdopen(i32 noundef %12, ptr noundef nonnull @.str.57) #21
  %.not.i = icmp eq ptr %13, null
  br i1 %.not.i, label %17, label %.preheader.i

.preheader.i:                                     ; preds = %9
  %14 = call i32 @strbuf_getline_lf(ptr noundef nonnull %2, ptr noundef nonnull %13) #21
  %.not45.i = icmp eq i32 %14, -1
  br i1 %.not45.i, label %._crit_edge.i, label %.lr.ph.i

.lr.ph.i:                                         ; preds = %.preheader.i
  %15 = getelementptr inbounds nuw i8, ptr %2, i64 16
  %16 = getelementptr inbounds nuw i8, ptr %2, i64 8
  br label %19

17:                                               ; preds = %9
  tail call void (ptr, ...) @logerror(ptr noundef nonnull @.str.58)
  %18 = tail call i32 @close(i32 noundef %12) #21
  br label %copy_to_log.exit

19:                                               ; preds = %strbuf_setlen.exit.i, %.lr.ph.i
  %20 = load ptr, ptr %15, align 8, !tbaa !27
  call void (ptr, ...) @logerror(ptr noundef nonnull @.str.59, ptr noundef %20)
  store i64 0, ptr %16, align 8, !tbaa !23
  %21 = load ptr, ptr %15, align 8, !tbaa !27
  %.not9.i.i = icmp eq ptr %21, @strbuf_slopbuf
  br i1 %.not9.i.i, label %strbuf_setlen.exit.i, label %22

22:                                               ; preds = %19
  store i8 0, ptr %21, align 1, !tbaa !9
  br label %strbuf_setlen.exit.i

strbuf_setlen.exit.i:                             ; preds = %22, %19
  %23 = call i32 @strbuf_getline_lf(ptr noundef nonnull %2, ptr noundef nonnull %13) #21
  %.not4.i = icmp eq i32 %23, -1
  br i1 %.not4.i, label %._crit_edge.i, label %19, !llvm.loop !91

._crit_edge.i:                                    ; preds = %strbuf_setlen.exit.i, %.preheader.i
  call void @strbuf_release(ptr noundef nonnull %2) #21
  %24 = call i32 @fclose(ptr noundef nonnull %13)
  br label %copy_to_log.exit

copy_to_log.exit:                                 ; preds = %17, %._crit_edge.i
  call void @llvm.lifetime.end.p0(i64 24, ptr nonnull %2) #21
  %25 = call i32 @finish_command(ptr noundef nonnull %0) #21
  br label %26

26:                                               ; preds = %1, %copy_to_log.exit
  %.0 = phi i32 [ %25, %copy_to_log.exit ], [ -1, %1 ]
  ret i32 %.0
}